; Function Attrs: nofree norecurse nosync nounwind memory(argmem: read) uwtable
define internal i32 @AccumulateSSE_C(ptr nocapture noundef readonly %0, ptr nocapture noundef readonly %1, i32 noundef %2) #4 {
  %4 = icmp sgt i32 %2, 0
  br i1 %4, label %.lr.ph.preheader, label %._crit_edge

.lr.ph.preheader:                                 ; preds = %3
  %wide.trip.count = zext nneg i32 %2 to i64
  br label %.lr.ph

.lr.ph:                                           ; preds = %.lr.ph.preheader, %.lr.ph
  %indvars.iv = phi i64 [ 0, %.lr.ph.preheader ], [ %indvars.iv.next, %.lr.ph ]
  %.01011 = phi i32 [ 0, %.lr.ph.preheader ], [ %13, %.lr.ph ]
  %5 = getelementptr inbounds i8, ptr %0, i64 %indvars.iv
  %6 = load i8, ptr %5, align 1
  %7 = zext i8 %6 to i32
  %8 = getelementptr inbounds i8, ptr %1, i64 %indvars.iv
  %9 = load i8, ptr %8, align 1
  %10 = zext i8 %9 to i32
  %11 = sub nsw i32 %7, %10
  %12 = mul nsw i32 %11, %11
  %13 = add i32 %12, %.01011
  %indvars.iv.next = add nuw nsw i64 %indvars.iv, 1
  %exitcond.not = icmp eq i64 %indvars.iv.next, %wide.trip.count
  br i1 %exitcond.not, label %._crit_edge, label %.lr.ph, !llvm.loop !9

._crit_edge:                                      ; preds = %.lr.ph, %3
  %.010.lcssa = phi i32 [ 0, %3 ], [ %13, %.lr.ph ]
  ret i32 %.010.lcssa
}